target datalayout = "e-m:e-p270:32:32-p271:32:32-p272:64:64-i64:64-i128:128-f80:128-n8:16:32:64-S128"
target triple = "x86_64-pc-linux-gnu"

%"class.icu_77::MeasureUnit" = type <{ %"class.icu_77::UObject", ptr, i16, i8, [5 x i8] }>
%"class.icu_77::UObject" = type { ptr }
%"class.icu_77::UnicodeString" = type { %"class.icu_77::Replaceable", %"union.icu_77::UnicodeString::StackBufferOrFields" }
%"class.icu_77::Replaceable" = type { %"class.icu_77::UObject" }
%"union.icu_77::UnicodeString::StackBufferOrFields" = type { %struct.anon.12, [32 x i8] }
%struct.anon.12 = type { i16, i32, i32, ptr }
%"class.icu_77::ConstChar16Ptr" = type { ptr }
%"class.icu_77::number::LocalizedNumberFormatter" = type { %"class.icu_77::number::NumberFormatterSettings", ptr, [8 x i8], ptr }
%"class.icu_77::number::NumberFormatterSettings" = type { %"struct.icu_77::number::impl::MacroProps" }
%"struct.icu_77::number::impl::MacroProps" = type { [4 x i8], %"class.icu_77::number::Notation", %"class.icu_77::MeasureUnit", %"class.icu_77::MeasureUnit", %"class.icu_77::number::Precision", i32, %"class.icu_77::number::impl::Grouper", %"class.icu_77::number::impl::Padder", %"class.icu_77::number::IntegerWidth", %"class.icu_77::number::impl::SymbolsWrapper", i32, i32, i8, i32, %"class.icu_77::number::Scale", %"class.icu_77::number::impl::StringProp", %"class.icu_77::number::impl::StringProp", ptr, ptr, i32, [4 x i8], %"class.icu_77::Locale" }
%"class.icu_77::number::Notation" = type { i32, %"union.icu_77::number::Notation::NotationUnion" }
%"union.icu_77::number::Notation::NotationUnion" = type { %"struct.icu_77::number::Notation::NotationUnion::ScientificSettings" }
%"struct.icu_77::number::Notation::NotationUnion::ScientificSettings" = type { i8, i8, i16, i32 }
%"class.icu_77::number::Precision" = type <{ i32, [4 x i8], %"union.icu_77::number::Precision::PrecisionUnion", i32, [4 x i8] }>
%"union.icu_77::number::Precision::PrecisionUnion" = type { %"struct.icu_77::number::Precision::PrecisionUnion::IncrementSettings" }
%"struct.icu_77::number::Precision::PrecisionUnion::IncrementSettings" = type { i64, i16, i16 }
%"class.icu_77::number::impl::Grouper" = type { i16, i16, i16, i32 }
%"class.icu_77::number::impl::Padder" = type { i32, %union.anon.6 }
%union.anon.6 = type { %struct.anon.7 }
%struct.anon.7 = type { i32, i32 }
%"class.icu_77::number::IntegerWidth" = type <{ %union.anon.8, i8, [3 x i8] }>
%union.anon.8 = type { i32, [4 x i8] }
%"class.icu_77::number::impl::SymbolsWrapper" = type { i32, %union.anon.10 }
%union.anon.10 = type { ptr }
%"class.icu_77::number::Scale" = type <{ i32, [4 x i8], ptr, i32, [4 x i8] }>
%"class.icu_77::number::impl::StringProp" = type { ptr, i16, i32 }
%"class.icu_77::Locale" = type <{ %"class.icu_77::UObject", [12 x i8], [6 x i8], [4 x i8], [2 x i8], i32, [4 x i8], ptr, [157 x i8], [3 x i8], ptr, i8, [7 x i8] }>
%"class.icu_77::number::UnlocalizedNumberFormatter" = type <{ %"class.icu_77::number::NumberFormatterSettings.13", [8 x i8] }>
%"class.icu_77::number::NumberFormatterSettings.13" = type { %"struct.icu_77::number::impl::MacroProps" }
%"struct.icu_77::number::impl::UNumberFormatterData" = type { %"class.icu_77::IcuCApiHelper.5", %"class.icu_77::number::LocalizedNumberFormatter" }
%"class.icu_77::IcuCApiHelper.5" = type { i32 }

; Function Attrs: mustprogress uwtable
define linkonce_odr void @_ZN6icu_776number23NumberFormatterSettingsINS0_24LocalizedNumberFormatterEEC2Ev(ptr noundef nonnull align 8 dereferenceable(472) %0) unnamed_addr #1 comdat align 2 {
  %2 = alloca ptr, align 8
  store ptr %0, ptr %2, align 8, !tbaa !193
  %3 = load ptr, ptr %2, align 8
  %4 = getelementptr inbounds nuw %"class.icu_77::number::NumberFormatterSettings", ptr %3, i32 0, i32 0
  call void @_ZN6icu_776number4impl10MacroPropsC2Ev(ptr noundef nonnull align 8 dereferenceable(472) %4)
  ret void
}

; Function Attrs: mustprogress nounwind uwtable
define linkonce_odr void @_ZN6icu_7713IcuCApiHelperI16UNumberFormatterNS_6number4impl20UNumberFormatterDataELi1313231360EED2Ev(ptr noundef nonnull align 4 dereferenceable(4) %0) unnamed_addr #0 comdat align 2 {
  %2 = alloca ptr, align 8
  store ptr %0, ptr %2, align 8, !tbaa !80
  %3 = load ptr, ptr %2, align 8
  %4 = getelementptr inbounds nuw %"class.icu_77::IcuCApiHelper.5", ptr %3, i32 0, i32 0
  store i32 0, ptr %4, align 4, !tbaa !86
  ret void
}

; Function Attrs: mustprogress uwtable
define linkonce_odr void @_ZN6icu_776number24LocalizedNumberFormatterC2Ev(ptr noundef nonnull align 8 dereferenceable(496) %0) unnamed_addr #1 comdat align 2 {
  %2 = alloca ptr, align 8
  store ptr %0, ptr %2, align 8, !tbaa !166
  %3 = load ptr, ptr %2, align 8
  call void @_ZN6icu_776number23NumberFormatterSettingsINS0_24LocalizedNumberFormatterEEC2Ev(ptr noundef nonnull align 8 dereferenceable(472) %3)
  %4 = getelementptr inbounds nuw %"class.icu_77::number::LocalizedNumberFormatter", ptr %3, i32 0, i32 1
  store ptr null, ptr %4, align 8, !tbaa !168
  %5 = getelementptr inbounds nuw %"class.icu_77::number::LocalizedNumberFormatter", ptr %3, i32 0, i32 2
  %6 = getelementptr inbounds i8, ptr %5, i64 8
  br label %7

7:                                                ; preds = %7, %1
  %8 = phi ptr [ %5, %1 ], [ %9, %7 ]
  store i8 0, ptr %8, align 1, !tbaa !46
  %9 = getelementptr inbounds i8, ptr %8, i64 1
  %10 = icmp eq ptr %9, %6
  br i1 %10, label %11, label %7

11:                                               ; preds = %7
  %12 = getelementptr inbounds nuw %"class.icu_77::number::LocalizedNumberFormatter", ptr %3, i32 0, i32 3
  store ptr null, ptr %12, align 8, !tbaa !192
  ret void
}

; Function Attrs: inlinehint mustprogress nounwind uwtable
define linkonce_odr void @_ZN6icu_7713IcuCApiHelperI16UNumberFormatterNS_6number4impl20UNumberFormatterDataELi1313231360EEC2Ev(ptr noundef nonnull align 4 dereferenceable(4) %0) unnamed_addr #2 comdat align 2 {
  %2 = alloca ptr, align 8
  store ptr %0, ptr %2, align 8, !tbaa !80
  %3 = load ptr, ptr %2, align 8
  %4 = getelementptr inbounds nuw %"class.icu_77::IcuCApiHelper.5", ptr %3, i32 0, i32 0
  store i32 1313231360, ptr %4, align 4, !tbaa !86
  ret void
}

; Function Attrs: mustprogress nounwind uwtable
define linkonce_odr noundef ptr @_ZN6icu_7713IcuCApiHelperI16UNumberFormatterNS_6number4impl20UNumberFormatterDataELi1313231360EE10exportForCEv(ptr noundef nonnull align 4 dereferenceable(4) %0) #0 comdat align 2 {
  %2 = alloca ptr, align 8
  store ptr %0, ptr %2, align 8, !tbaa !80
  %3 = load ptr, ptr %2, align 8
  ret ptr %3
}

; Function Attrs: inlinehint mustprogress nounwind uwtable
define linkonce_odr void @_ZN6icu_7714ConstChar16PtrD2Ev(ptr noundef nonnull align 8 dereferenceable(8) %0) unnamed_addr #2 comdat align 2 {
  %2 = alloca ptr, align 8
  store ptr %0, ptr %2, align 8, !tbaa !73
  %3 = load ptr, ptr %2, align 8
  %4 = getelementptr inbounds nuw %"class.icu_77::ConstChar16Ptr", ptr %3, i32 0, i32 0
  %5 = load ptr, ptr %4, align 8, !tbaa !75
  call void asm sideeffect "", "rm,~{memory},~{dirflag},~{fpsr},~{flags}"(ptr %5) #11, !srcloc !77
  ret void
}

; Function Attrs: inlinehint mustprogress nounwind uwtable
define linkonce_odr void @_ZN6icu_7714ConstChar16PtrC2EPKDs(ptr noundef nonnull align 8 dereferenceable(8) %0, ptr noundef %1) unnamed_addr #2 comdat align 2 {
  %3 = alloca ptr, align 8
  %4 = alloca ptr, align 8
  store ptr %0, ptr %3, align 8, !tbaa !73
  store ptr %1, ptr %4, align 8, !tbaa !69
  %5 = load ptr, ptr %3, align 8
  %6 = getelementptr inbounds nuw %"class.icu_77::ConstChar16Ptr", ptr %5, i32 0, i32 0
  %7 = load ptr, ptr %4, align 8, !tbaa !69
  store ptr %7, ptr %6, align 8, !tbaa !75
  ret void
}

; Function Attrs: inlinehint mustprogress uwtable
define linkonce_odr void @_ZN6icu_776number4impl20UNumberFormatterDataC2Ev(ptr noundef nonnull align 8 dereferenceable(504) %0) unnamed_addr #3 comdat align 2 personality ptr @__gxx_personality_v0 {
  %2 = alloca ptr, align 8
  %3 = alloca ptr, align 8
  %4 = alloca i32, align 4
  store ptr %0, ptr %2, align 8, !tbaa !71
  %5 = load ptr, ptr %2, align 8
  call void @_ZN6icu_7713IcuCApiHelperI16UNumberFormatterNS_6number4impl20UNumberFormatterDataELi1313231360EEC2Ev(ptr noundef nonnull align 4 dereferenceable(4) %5) #11
  %6 = getelementptr inbounds nuw %"struct.icu_77::number::impl::UNumberFormatterData", ptr %5, i32 0, i32 1
  invoke void @_ZN6icu_776number24LocalizedNumberFormatterC2Ev(ptr noundef nonnull align 8 dereferenceable(496) %6)
          to label %7 unwind label %8

7:                                                ; preds = %1
  ret void

8:                                                ; preds = %1
  %9 = landingpad { ptr, i32 }
          cleanup
  %10 = extractvalue { ptr, i32 } %9, 0
  store ptr %10, ptr %3, align 8
  %11 = extractvalue { ptr, i32 } %9, 1
  store i32 %11, ptr %4, align 4
  call void @_ZN6icu_7713IcuCApiHelperI16UNumberFormatterNS_6number4impl20UNumberFormatterDataELi1313231360EED2Ev(ptr noundef nonnull align 4 dereferenceable(4) %5) #11
  br label %12

12:                                               ; preds = %8
  %13 = load ptr, ptr %3, align 8
  %14 = load i32, ptr %4, align 4
  %15 = insertvalue { ptr, i32 } poison, ptr %13, 0
  %16 = insertvalue { ptr, i32 } %15, i32 %14, 1
  resume { ptr, i32 } %16
}

; Function Attrs: mustprogress uwtable
define ptr @unumf_openForSkeletonAndLocale_77(ptr noundef %0, i32 noundef %1, ptr noundef %2, ptr noundef %3) #1 personality ptr @__gxx_personality_v0 {
  %5 = alloca ptr, align 8
  %6 = alloca ptr, align 8
  %7 = alloca i32, align 4
  %8 = alloca ptr, align 8
  %9 = alloca ptr, align 8
  %10 = alloca ptr, align 8
  %11 = alloca i1, align 1
  %12 = alloca ptr, align 8
  %13 = alloca i32, align 4
  %14 = alloca i32, align 4
  %15 = alloca %"class.icu_77::UnicodeString", align 8
  %16 = alloca %"class.icu_77::ConstChar16Ptr", align 8
  %17 = alloca %"class.icu_77::number::LocalizedNumberFormatter", align 8
  %18 = alloca %"class.icu_77::number::UnlocalizedNumberFormatter", align 8
  %19 = alloca %"class.icu_77::Locale", align 8
  store ptr %0, ptr %6, align 8, !tbaa !69
  store i32 %1, ptr %7, align 4, !tbaa !14
  store ptr %2, ptr %8, align 8, !tbaa !17
  store ptr %3, ptr %9, align 8, !tbaa !22
  call void @llvm.lifetime.start.p0(i64 8, ptr %10) #11
  %20 = call noundef ptr @_ZN6icu_777UMemorynwEm(i64 noundef 504) #11
  %21 = icmp eq ptr %20, null
  store i1 false, ptr %11, align 1
  br i1 %21, label %24, label %22

22:                                               ; preds = %4
  store i1 true, ptr %11, align 1
  call void @llvm.memset.p0.i64(ptr align 8 %20, i8 0, i64 504, i1 false)
  invoke void @_ZN6icu_776number4impl20UNumberFormatterDataC2Ev(ptr noundef nonnull align 8 dereferenceable(504) %20)
          to label %23 unwind label %30

23:                                               ; preds = %22
  br label %24

24:                                               ; preds = %23, %4
  %25 = phi ptr [ %20, %23 ], [ null, %4 ]
  store ptr %25, ptr %10, align 8, !tbaa !71
  %26 = load ptr, ptr %10, align 8, !tbaa !71
  %27 = icmp eq ptr %26, null
  br i1 %27, label %28, label %37

28:                                               ; preds = %24
  %29 = load ptr, ptr %9, align 8, !tbaa !22
  store i32 7, ptr %29, align 4, !tbaa !15
  store ptr null, ptr %5, align 8
  store i32 1, ptr %14, align 4
  br label %79

30:                                               ; preds = %22
  %31 = landingpad { ptr, i32 }
          cleanup
  %32 = extractvalue { ptr, i32 } %31, 0
  store ptr %32, ptr %12, align 8
  %33 = extractvalue { ptr, i32 } %31, 1
  store i32 %33, ptr %13, align 4
  %34 = load i1, ptr %11, align 1
  br i1 %34, label %35, label %36

35:                                               ; preds = %30
  call void @_ZN6icu_777UMemorydlEPv(ptr noundef %20) #11
  br label %36

36:                                               ; preds = %35, %30
  br label %81

37:                                               ; preds = %24
  call void @llvm.lifetime.start.p0(i64 64, ptr %15) #11
  %38 = load i32, ptr %7, align 4, !tbaa !14
  %39 = icmp eq i32 %38, -1
  %40 = zext i1 %39 to i8
  %41 = load ptr, ptr %6, align 8, !tbaa !69
  call void @_ZN6icu_7714ConstChar16PtrC2EPKDs(ptr noundef nonnull align 8 dereferenceable(8) %16, ptr noundef %41)
  %42 = load i32, ptr %7, align 4, !tbaa !14
  invoke void @_ZN6icu_7713UnicodeStringC1EaNS_14ConstChar16PtrEi(ptr noundef nonnull align 8 dereferenceable(64) %15, i8 noundef signext %40, ptr noundef %16, i32 noundef %42)
          to label %43 unwind label %55

43:                                               ; preds = %37
  call void @_ZN6icu_7714ConstChar16PtrD2Ev(ptr noundef nonnull align 8 dereferenceable(8) %16) #11
  call void @llvm.lifetime.start.p0(i64 496, ptr %17) #11
  call void @llvm.lifetime.start.p0(i64 480, ptr %18) #11
  %44 = load ptr, ptr %9, align 8, !tbaa !22
  invoke void @_ZN6icu_776number15NumberFormatter11forSkeletonERKNS_13UnicodeStringER10UErrorCode(ptr dead_on_unwind writable sret(%"class.icu_77::number::UnlocalizedNumberFormatter") align 8 %18, ptr noundef nonnull align 8 dereferenceable(64) %15, ptr noundef nonnull align 4 dereferenceable(4) %44)
          to label %45 unwind label %59

45:                                               ; preds = %43
  call void @llvm.lifetime.start.p0(i64 224, ptr %19) #11
  %46 = load ptr, ptr %8, align 8, !tbaa !17
  invoke void @_ZN6icu_776LocaleC1EPKcS2_S2_S2_(ptr noundef nonnull align 8 dereferenceable(217) %19, ptr noundef %46, ptr noundef null, ptr noundef null, ptr noundef null)
          to label %47 unwind label %63

47:                                               ; preds = %45
  invoke void @_ZNO6icu_776number26UnlocalizedNumberFormatter6localeERKNS_6LocaleE(ptr dead_on_unwind writable sret(%"class.icu_77::number::LocalizedNumberFormatter") align 8 %17, ptr noundef nonnull align 8 dereferenceable(473) %18, ptr noundef nonnull align 8 dereferenceable(217) %19)
          to label %48 unwind label %67

48:                                               ; preds = %47
  %49 = load ptr, ptr %10, align 8, !tbaa !71
  %50 = getelementptr inbounds nuw %"struct.icu_77::number::impl::UNumberFormatterData", ptr %49, i32 0, i32 1
  %51 = call noundef nonnull align 8 dereferenceable(496) ptr @_ZN6icu_776number24LocalizedNumberFormatteraSEOS1_(ptr noundef nonnull align 8 dereferenceable(496) %50, ptr noundef nonnull align 8 dereferenceable(496) %17) #11
  call void @_ZN6icu_776number24LocalizedNumberFormatterD1Ev(ptr noundef nonnull align 8 dereferenceable(496) %17) #11
  call void @_ZN6icu_776LocaleD1Ev(ptr noundef nonnull align 8 dereferenceable(217) %19) #11
  call void @llvm.lifetime.end.p0(i64 224, ptr %19) #11
  call void @_ZN6icu_776number23NumberFormatterSettingsINS0_26UnlocalizedNumberFormatterEED2Ev(ptr noundef nonnull align 8 dereferenceable(473) %18) #11
  call void @llvm.lifetime.end.p0(i64 480, ptr %18) #11
  call void @llvm.lifetime.end.p0(i64 496, ptr %17) #11
  %52 = load ptr, ptr %10, align 8, !tbaa !71
  %53 = invoke noundef ptr @_ZN6icu_7713IcuCApiHelperI16UNumberFormatterNS_6number4impl20UNumberFormatterDataELi1313231360EE10exportForCEv(ptr noundef nonnull align 4 dereferenceable(4) %52)
          to label %54 unwind label %73

54:                                               ; preds = %48
  store ptr %53, ptr %5, align 8
  store i32 1, ptr %14, align 4
  call void @_ZN6icu_7713UnicodeStringD1Ev(ptr noundef nonnull align 8 dereferenceable(64) %15) #11
  call void @llvm.lifetime.end.p0(i64 64, ptr %15) #11
  br label %79

55:                                               ; preds = %37
  %56 = landingpad { ptr, i32 }
          cleanup
  %57 = extractvalue { ptr, i32 } %56, 0
  store ptr %57, ptr %12, align 8
  %58 = extractvalue { ptr, i32 } %56, 1
  store i32 %58, ptr %13, align 4
  call void @_ZN6icu_7714ConstChar16PtrD2Ev(ptr noundef nonnull align 8 dereferenceable(8) %16) #11
  br label %78

59:                                               ; preds = %43
  %60 = landingpad { ptr, i32 }
          cleanup
  %61 = extractvalue { ptr, i32 } %60, 0
  store ptr %61, ptr %12, align 8
  %62 = extractvalue { ptr, i32 } %60, 1
  store i32 %62, ptr %13, align 4
  br label %72

63:                                               ; preds = %45
  %64 = landingpad { ptr, i32 }
          cleanup
  %65 = extractvalue { ptr, i32 } %64, 0
  store ptr %65, ptr %12, align 8
  %66 = extractvalue { ptr, i32 } %64, 1
  store i32 %66, ptr %13, align 4
  br label %71

67:                                               ; preds = %47
  %68 = landingpad { ptr, i32 }
          cleanup
  %69 = extractvalue { ptr, i32 } %68, 0
  store ptr %69, ptr %12, align 8
  %70 = extractvalue { ptr, i32 } %68, 1
  store i32 %70, ptr %13, align 4
  call void @_ZN6icu_776LocaleD1Ev(ptr noundef nonnull align 8 dereferenceable(217) %19) #11
  br label %71

71:                                               ; preds = %67, %63
  call void @llvm.lifetime.end.p0(i64 224, ptr %19) #11
  call void @_ZN6icu_776number23NumberFormatterSettingsINS0_26UnlocalizedNumberFormatterEED2Ev(ptr noundef nonnull align 8 dereferenceable(473) %18) #11
  br label %72

72:                                               ; preds = %71, %59
  call void @llvm.lifetime.end.p0(i64 480, ptr %18) #11
  call void @llvm.lifetime.end.p0(i64 496, ptr %17) #11
  br label %77

73:                                               ; preds = %48
  %74 = landingpad { ptr, i32 }
          cleanup
  %75 = extractvalue { ptr, i32 } %74, 0
  store ptr %75, ptr %12, align 8
  %76 = extractvalue { ptr, i32 } %74, 1
  store i32 %76, ptr %13, align 4
  br label %77

77:                                               ; preds = %73, %72
  call void @_ZN6icu_7713UnicodeStringD1Ev(ptr noundef nonnull align 8 dereferenceable(64) %15) #11
  br label %78

78:                                               ; preds = %77, %55
  call void @llvm.lifetime.end.p0(i64 64, ptr %15) #11
  br label %81

79:                                               ; preds = %54, %28
  call void @llvm.lifetime.end.p0(i64 8, ptr %10) #11
  %80 = load ptr, ptr %5, align 8
  ret ptr %80

81:                                               ; preds = %78, %36
  call void @llvm.lifetime.end.p0(i64 8, ptr %10) #11
  br label %82

82:                                               ; preds = %81
  %83 = load ptr, ptr %12, align 8
  %84 = load i32, ptr %13, align 4
  %85 = insertvalue { ptr, i32 } poison, ptr %83, 0
  %86 = insertvalue { ptr, i32 } %85, i32 %84, 1
  resume { ptr, i32 } %86
}