; Function Attrs: mustprogress uwtable
define noundef ptr @unumf_openForSkeletonAndLocale_77(ptr noundef %0, i32 noundef %1, ptr noundef %2, ptr noundef %3) local_unnamed_addr #1 personality ptr @__gxx_personality_v0 {
  %5 = alloca %"class.icu_77::UnicodeString", align 8
  %6 = alloca %"class.icu_77::ConstChar16Ptr", align 8
  %7 = alloca %"class.icu_77::number::LocalizedNumberFormatter", align 8
  %8 = alloca %"class.icu_77::number::UnlocalizedNumberFormatter", align 8
  %9 = alloca %"class.icu_77::Locale", align 8
  %10 = tail call noundef ptr @_ZN6icu_777UMemorynwEm(i64 noundef 504) #15
  %11 = icmp eq ptr %10, null
  br i1 %11, label %15, label %12

12:                                               ; preds = %4
  tail call void @llvm.memset.p0.i64(ptr noundef nonnull align 8 dereferenceable(504) %10, i8 0, i64 504, i1 false)
  store i32 1313231360, ptr %10, align 4, !tbaa !51
  %13 = getelementptr inbounds nuw i8, ptr %10, i64 8
  invoke void @_ZN6icu_776number4impl10MacroPropsC2Ev(ptr noundef nonnull align 8 dereferenceable(496) %13)
          to label %16 unwind label %.body

.body:                                            ; preds = %12
  %14 = landingpad { ptr, i32 }
          cleanup
  store i32 0, ptr %10, align 4, !tbaa !51
  tail call void @_ZN6icu_777UMemorydlEPv(ptr noundef nonnull %10) #15
  br label %46

15:                                               ; preds = %4
  store i32 7, ptr %3, align 4, !tbaa !13
  br label %45

16:                                               ; preds = %12
  %17 = getelementptr inbounds nuw i8, ptr %10, i64 480
  tail call void @llvm.memset.p0.i64(ptr noundef nonnull align 8 dereferenceable(24) %17, i8 0, i64 24, i1 false)
  call void @llvm.lifetime.start.p0(i64 64, ptr nonnull %5) #15
  %18 = icmp eq i32 %1, -1
  %19 = zext i1 %18 to i8
  store ptr %0, ptr %6, align 8, !tbaa !53
  invoke void @_ZN6icu_7713UnicodeStringC1EaNS_14ConstChar16PtrEi(ptr noundef nonnull align 8 dereferenceable(64) %5, i8 noundef signext %19, ptr noundef nonnull %6, i32 noundef %1)
          to label %20 unwind label %33

20:                                               ; preds = %16
  %21 = load ptr, ptr %6, align 8, !tbaa !53
  call void asm sideeffect "", "rm,~{memory},~{dirflag},~{fpsr},~{flags}"(ptr %21) #15, !srcloc !56
  call void @llvm.lifetime.start.p0(i64 496, ptr nonnull %7) #15
  call void @llvm.lifetime.start.p0(i64 480, ptr nonnull %8) #15
  invoke void @_ZN6icu_776number15NumberFormatter11forSkeletonERKNS_13UnicodeStringER10UErrorCode(ptr dead_on_unwind nonnull writable sret(%"class.icu_77::number::UnlocalizedNumberFormatter") align 8 %8, ptr noundef nonnull align 8 dereferenceable(64) %5, ptr noundef nonnull align 4 dereferenceable(4) %3)
          to label %22 unwind label %36

22:                                               ; preds = %20
  call void @llvm.lifetime.start.p0(i64 224, ptr nonnull %9) #15
  invoke void @_ZN6icu_776LocaleC1EPKcS2_S2_S2_(ptr noundef nonnull align 8 dereferenceable(217) %9, ptr noundef %2, ptr noundef null, ptr noundef null, ptr noundef null)
          to label %23 unwind label %38

23:                                               ; preds = %22
  invoke void @_ZNO6icu_776number26UnlocalizedNumberFormatter6localeERKNS_6LocaleE(ptr dead_on_unwind nonnull writable sret(%"class.icu_77::number::LocalizedNumberFormatter") align 8 %7, ptr noundef nonnull align 8 dereferenceable(473) %8, ptr noundef nonnull align 8 dereferenceable(217) %9)
          to label %24 unwind label %40

24:                                               ; preds = %23
  %25 = call noundef nonnull align 8 dereferenceable(496) ptr @_ZN6icu_776number24LocalizedNumberFormatteraSEOS1_(ptr noundef nonnull align 8 dereferenceable(496) %13, ptr noundef nonnull align 8 dereferenceable(496) %7) #15
  call void @_ZN6icu_776number24LocalizedNumberFormatterD1Ev(ptr noundef nonnull align 8 dereferenceable(496) %7) #15
  call void @_ZN6icu_776LocaleD1Ev(ptr noundef nonnull align 8 dereferenceable(217) %9) #15
  call void @llvm.lifetime.end.p0(i64 224, ptr nonnull %9) #15
  %26 = getelementptr inbounds nuw i8, ptr %8, i64 248
  call void @_ZN6icu_776LocaleD1Ev(ptr noundef nonnull align 8 dereferenceable(217) %26) #15
  %27 = getelementptr inbounds nuw i8, ptr %8, i64 208
  call void @_ZN6icu_776number4impl10StringPropD1Ev(ptr noundef nonnull align 8 dereferenceable(16) %27) #15
  %28 = getelementptr inbounds nuw i8, ptr %8, i64 192
  call void @_ZN6icu_776number4impl10StringPropD1Ev(ptr noundef nonnull align 8 dereferenceable(16) %28) #15
  %29 = getelementptr inbounds nuw i8, ptr %8, i64 168
  call void @_ZN6icu_776number5ScaleD1Ev(ptr noundef nonnull align 8 dereferenceable(20) %29) #15
  %30 = getelementptr inbounds nuw i8, ptr %8, i64 136
  call void @_ZN6icu_776number4impl14SymbolsWrapperD1Ev(ptr noundef nonnull align 8 dereferenceable(16) %30) #15
  %31 = getelementptr inbounds nuw i8, ptr %8, i64 40
  call void @_ZN6icu_7711MeasureUnitD1Ev(ptr noundef nonnull align 8 dereferenceable(19) %31) #15
  %32 = getelementptr inbounds nuw i8, ptr %8, i64 16
  call void @_ZN6icu_7711MeasureUnitD1Ev(ptr noundef nonnull align 8 dereferenceable(19) %32) #15
  call void @llvm.lifetime.end.p0(i64 480, ptr nonnull %8) #15
  call void @llvm.lifetime.end.p0(i64 496, ptr nonnull %7) #15
  call void @_ZN6icu_7713UnicodeStringD1Ev(ptr noundef nonnull align 8 dereferenceable(64) %5) #15
  call void @llvm.lifetime.end.p0(i64 64, ptr nonnull %5) #15
  br label %45

33:                                               ; preds = %16
  %34 = landingpad { ptr, i32 }
          cleanup
  %35 = load ptr, ptr %6, align 8, !tbaa !53
  call void asm sideeffect "", "rm,~{memory},~{dirflag},~{fpsr},~{flags}"(ptr %35) #15, !srcloc !56
  br label %44

36:                                               ; preds = %20
  %37 = landingpad { ptr, i32 }
          cleanup
  br label %43

38:                                               ; preds = %22
  %39 = landingpad { ptr, i32 }
          cleanup
  br label %42

40:                                               ; preds = %23
  %41 = landingpad { ptr, i32 }
          cleanup
  call void @_ZN6icu_776LocaleD1Ev(ptr noundef nonnull align 8 dereferenceable(217) %9) #15
  br label %42

42:                                               ; preds = %40, %38
  %.pn = phi { ptr, i32 } [ %41, %40 ], [ %39, %38 ]
  call void @llvm.lifetime.end.p0(i64 224, ptr nonnull %9) #15
  call void @_ZN6icu_776number23NumberFormatterSettingsINS0_26UnlocalizedNumberFormatterEED2Ev(ptr noundef nonnull align 8 dereferenceable(473) %8) #15
  br label %43

43:                                               ; preds = %42, %36
  %.pn.pn = phi { ptr, i32 } [ %.pn, %42 ], [ %37, %36 ]
  call void @llvm.lifetime.end.p0(i64 480, ptr nonnull %8) #15
  call void @llvm.lifetime.end.p0(i64 496, ptr nonnull %7) #15
  call void @_ZN6icu_7713UnicodeStringD1Ev(ptr noundef nonnull align 8 dereferenceable(64) %5) #15
  br label %44

44:                                               ; preds = %43, %33
  %.pn.pn.pn = phi { ptr, i32 } [ %.pn.pn, %43 ], [ %34, %33 ]
  call void @llvm.lifetime.end.p0(i64 64, ptr nonnull %5) #15
  br label %46

45:                                               ; preds = %24, %15
  ret ptr %10

46:                                               ; preds = %.body, %44
  %.pn.pn.pn.pn = phi { ptr, i32 } [ %.pn.pn.pn, %44 ], [ %14, %.body ]
  resume { ptr, i32 } %.pn.pn.pn.pn
}